target datalayout = "e-m:e-p270:32:32-p271:32:32-p272:64:64-i64:64-i128:128-f80:128-n8:16:32:64-S128"
target triple = "x86_64-pc-linux-gnu"

%struct.pollfd = type { i32, i16, i16 }

@use_keepalive = internal global i32 0, align 4
@use_sideband = internal global i32 0, align 4
@keepalive_in_sec = internal global i32 5, align 4
@copy_to_sideband.buf = internal constant [6 x i8] c"0005\01\00", align 1

; Function Attrs: nounwind uwtable
define internal i32 @copy_to_sideband(i32 noundef %0, i32 noundef %1, ptr noundef %2) #0 {
  %4 = alloca i32, align 4
  %5 = alloca i32, align 4
  %6 = alloca ptr, align 8
  %7 = alloca [128 x i8], align 16
  %8 = alloca i32, align 4
  %9 = alloca i64, align 8
  %10 = alloca %struct.pollfd, align 4
  %11 = alloca i32, align 4
  %12 = alloca i32, align 4
  %13 = alloca ptr, align 8
  store i32 %0, ptr %4, align 4, !tbaa !4
  store i32 %1, ptr %5, align 4, !tbaa !4
  store ptr %2, ptr %6, align 8, !tbaa !45
  call void @llvm.lifetime.start.p0(i64 128, ptr %7) #15
  call void @llvm.lifetime.start.p0(i64 4, ptr %8) #15
  store i32 0, ptr %8, align 4, !tbaa !4
  %14 = load i32, ptr @keepalive_in_sec, align 4, !tbaa !4
  %15 = icmp sle i32 %14, 0
  br i1 %15, label %16, label %17

16:                                               ; preds = %3
  store i32 0, ptr @use_keepalive, align 4, !tbaa !4
  br label %17

17:                                               ; preds = %16, %3
  %18 = load i32, ptr @use_keepalive, align 4, !tbaa !4
  %19 = icmp eq i32 %18, 2
  br i1 %19, label %20, label %21

20:                                               ; preds = %17
  store i32 1, ptr %8, align 4, !tbaa !4
  br label %21

21:                                               ; preds = %20, %17
  br label %22

22:                                               ; preds = %98, %96, %21
  br label %23

23:                                               ; preds = %22
  call void @llvm.lifetime.start.p0(i64 8, ptr %9) #15
  %24 = load i32, ptr %8, align 4, !tbaa !4
  %25 = icmp ne i32 %24, 0
  br i1 %25, label %26, label %50

26:                                               ; preds = %23
  call void @llvm.lifetime.start.p0(i64 8, ptr %10) #15
  call void @llvm.lifetime.start.p0(i64 4, ptr %11) #15
  %27 = load i32, ptr %4, align 4, !tbaa !4
  %28 = getelementptr inbounds nuw %struct.pollfd, ptr %10, i32 0, i32 0
  store i32 %27, ptr %28, align 4, !tbaa !149
  %29 = getelementptr inbounds nuw %struct.pollfd, ptr %10, i32 0, i32 1
  store i16 1, ptr %29, align 4, !tbaa !152
  %30 = load i32, ptr @keepalive_in_sec, align 4, !tbaa !4
  %31 = mul nsw i32 1000, %30
  %32 = call i32 @poll(ptr noundef %10, i64 noundef 1, i32 noundef %31)
  store i32 %32, ptr %11, align 4, !tbaa !4
  %33 = load i32, ptr %11, align 4, !tbaa !4
  %34 = icmp slt i32 %33, 0
  br i1 %34, label %35, label %41

35:                                               ; preds = %26
  %36 = call ptr @__errno_location() #18
  %37 = load i32, ptr %36, align 4, !tbaa !4
  %38 = icmp eq i32 %37, 4
  br i1 %38, label %39, label %40

39:                                               ; preds = %35
  store i32 2, ptr %12, align 4
  br label %47

40:                                               ; preds = %35
  store i32 3, ptr %12, align 4
  br label %47

41:                                               ; preds = %26
  %42 = load i32, ptr %11, align 4, !tbaa !4
  %43 = icmp eq i32 %42, 0
  br i1 %43, label %44, label %45

44:                                               ; preds = %41
  call void @write_or_die(i32 noundef 1, ptr noundef @copy_to_sideband.buf, i64 noundef 5)
  store i32 2, ptr %12, align 4
  br label %47

45:                                               ; preds = %41
  br label %46

46:                                               ; preds = %45
  store i32 0, ptr %12, align 4
  br label %47

47:                                               ; preds = %46, %44, %40, %39
  call void @llvm.lifetime.end.p0(i64 4, ptr %11) #15
  call void @llvm.lifetime.end.p0(i64 8, ptr %10) #15
  %48 = load i32, ptr %12, align 4
  switch i32 %48, label %96 [
    i32 0, label %49
  ]

49:                                               ; preds = %47
  br label %50

50:                                               ; preds = %49, %23
  %51 = load i32, ptr %4, align 4, !tbaa !4
  %52 = getelementptr inbounds [128 x i8], ptr %7, i64 0, i64 0
  %53 = call i64 @xread(i32 noundef %51, ptr noundef %52, i64 noundef 128)
  store i64 %53, ptr %9, align 8, !tbaa !53
  %54 = load i64, ptr %9, align 8, !tbaa !53
  %55 = icmp sle i64 %54, 0
  br i1 %55, label %56, label %57

56:                                               ; preds = %50
  store i32 3, ptr %12, align 4
  br label %96

57:                                               ; preds = %50
  %58 = load i32, ptr @use_keepalive, align 4, !tbaa !4
  %59 = icmp eq i32 %58, 1
  br i1 %59, label %60, label %92

60:                                               ; preds = %57
  %61 = load i32, ptr %8, align 4, !tbaa !4
  %62 = icmp ne i32 %61, 0
  br i1 %62, label %92, label %63

63:                                               ; preds = %60
  call void @llvm.lifetime.start.p0(i64 8, ptr %13) #15
  %64 = getelementptr inbounds [128 x i8], ptr %7, i64 0, i64 0
  %65 = load i64, ptr %9, align 8, !tbaa !53
  %66 = call ptr @memchr(ptr noundef %64, i32 noundef 0, i64 noundef %65) #17
  store ptr %66, ptr %13, align 8, !tbaa !11
  %67 = load ptr, ptr %13, align 8, !tbaa !11
  %68 = icmp ne ptr %67, null
  br i1 %68, label %69, label %88

69:                                               ; preds = %63
  store i32 1, ptr %8, align 4, !tbaa !4
  %70 = getelementptr inbounds [128 x i8], ptr %7, i64 0, i64 0
  %71 = load ptr, ptr %13, align 8, !tbaa !11
  %72 = getelementptr inbounds [128 x i8], ptr %7, i64 0, i64 0
  %73 = ptrtoint ptr %71 to i64
  %74 = ptrtoint ptr %72 to i64
  %75 = sub i64 %73, %74
  %76 = load i32, ptr @use_sideband, align 4, !tbaa !4
  call void @send_sideband(i32 noundef 1, i32 noundef 2, ptr noundef %70, i64 noundef %75, i32 noundef %76)
  %77 = load ptr, ptr %13, align 8, !tbaa !11
  %78 = getelementptr inbounds i8, ptr %77, i64 1
  %79 = load i64, ptr %9, align 8, !tbaa !53
  %80 = load ptr, ptr %13, align 8, !tbaa !11
  %81 = getelementptr inbounds [128 x i8], ptr %7, i64 0, i64 0
  %82 = ptrtoint ptr %80 to i64
  %83 = ptrtoint ptr %81 to i64
  %84 = sub i64 %82, %83
  %85 = add nsw i64 %84, 1
  %86 = sub nsw i64 %79, %85
  %87 = load i32, ptr @use_sideband, align 4, !tbaa !4
  call void @send_sideband(i32 noundef 1, i32 noundef 2, ptr noundef %78, i64 noundef %86, i32 noundef %87)
  store i32 2, ptr %12, align 4
  br label %89

88:                                               ; preds = %63
  store i32 0, ptr %12, align 4
  br label %89

89:                                               ; preds = %88, %69
  call void @llvm.lifetime.end.p0(i64 8, ptr %13) #15
  %90 = load i32, ptr %12, align 4
  switch i32 %90, label %96 [
    i32 0, label %91
  ]

91:                                               ; preds = %89
  br label %92

92:                                               ; preds = %91, %60, %57
  %93 = getelementptr inbounds [128 x i8], ptr %7, i64 0, i64 0
  %94 = load i64, ptr %9, align 8, !tbaa !53
  %95 = load i32, ptr @use_sideband, align 4, !tbaa !4
  call void @send_sideband(i32 noundef 1, i32 noundef 2, ptr noundef %93, i64 noundef %94, i32 noundef %95)
  store i32 0, ptr %12, align 4
  br label %96

96:                                               ; preds = %92, %89, %56, %47
  call void @llvm.lifetime.end.p0(i64 8, ptr %9) #15
  %97 = load i32, ptr %12, align 4
  switch i32 %97, label %102 [
    i32 0, label %98
    i32 2, label %22
    i32 3, label %99
  ]

98:                                               ; preds = %96
  br label %22

99:                                               ; preds = %96
  %100 = load i32, ptr %4, align 4, !tbaa !4
  %101 = call i32 @close(i32 noundef %100)
  store i32 1, ptr %12, align 4
  call void @llvm.lifetime.end.p0(i64 4, ptr %8) #15
  call void @llvm.lifetime.end.p0(i64 128, ptr %7) #15
  ret i32 0

102:                                              ; preds = %96
  unreachable
}