; Function Attrs: nounwind uwtable
define internal noundef i32 @copy_to_sideband(i32 noundef %0, i32 %1, ptr readnone captures(none) %2) #0 {
  %4 = alloca [128 x i8], align 16
  %5 = alloca %struct.pollfd, align 4
  call void @llvm.lifetime.start.p0(i64 128, ptr nonnull %4) #21
  %6 = load i32, ptr @keepalive_in_sec, align 4, !tbaa !4
  %7 = icmp slt i32 %6, 1
  br i1 %7, label %8, label %thread-pre-split

8:                                                ; preds = %3
  store i32 0, ptr @use_keepalive, align 4, !tbaa !4
  br label %10

thread-pre-split:                                 ; preds = %3
  %.pr = load i32, ptr @use_keepalive, align 4, !tbaa !4
  %9 = icmp eq i32 %.pr, 2
  br label %10

10:                                               ; preds = %thread-pre-split, %8
  %spec.select = phi i1 [ %9, %thread-pre-split ], [ false, %8 ]
  %11 = getelementptr inbounds nuw i8, ptr %5, i64 4
  %12 = ptrtoint ptr %4 to i64
  br label %select.unfold.outer

select.unfold.outer:                              ; preds = %select.unfold.outer.backedge, %10
  %.1.ph = phi i1 [ %spec.select, %10 ], [ true, %select.unfold.outer.backedge ]
  br label %select.unfold

select.unfold:                                    ; preds = %select.unfold.outer, %.thread29
  br i1 %.1.ph, label %13, label %24

13:                                               ; preds = %select.unfold
  call void @llvm.lifetime.start.p0(i64 8, ptr nonnull %5) #21
  store i32 %0, ptr %5, align 4, !tbaa !174
  store i16 1, ptr %11, align 4, !tbaa !177
  %14 = load i32, ptr @keepalive_in_sec, align 4, !tbaa !4
  %15 = mul nsw i32 %14, 1000
  %16 = call i32 @poll(ptr noundef nonnull %5, i64 noundef 1, i32 noundef %15) #21
  %17 = icmp slt i32 %16, 0
  br i1 %17, label %18, label %21

18:                                               ; preds = %13
  %19 = tail call ptr @__errno_location() #24
  %20 = load i32, ptr %19, align 4, !tbaa !4
  %.not40 = icmp eq i32 %20, 4
  call void @llvm.lifetime.end.p0(i64 8, ptr nonnull %5) #21
  br i1 %.not40, label %select.unfold.outer.backedge, label %.thread32

21:                                               ; preds = %13
  %22 = icmp eq i32 %16, 0
  br i1 %22, label %40, label %23

23:                                               ; preds = %21
  call void @llvm.lifetime.end.p0(i64 8, ptr nonnull %5) #21
  br label %24

24:                                               ; preds = %23, %select.unfold
  %25 = call i64 @xread(i32 noundef %0, ptr noundef nonnull %4, i64 noundef 128) #21
  %26 = icmp slt i64 %25, 1
  br i1 %26, label %.thread32, label %27

27:                                               ; preds = %24
  %28 = load i32, ptr @use_keepalive, align 4, !tbaa !4
  %29 = icmp ne i32 %28, 1
  %or.cond = or i1 %.1.ph, %29
  br i1 %or.cond, label %.thread29, label %30

30:                                               ; preds = %27
  %31 = call ptr @memchr(ptr noundef nonnull %4, i32 noundef 0, i64 noundef %25) #23
  %.not = icmp eq ptr %31, null
  br i1 %.not, label %.thread29, label %32

32:                                               ; preds = %30
  %33 = ptrtoint ptr %31 to i64
  %34 = sub i64 %33, %12
  %.b26 = load i1, ptr @use_sideband, align 4
  %35 = select i1 %.b26, i32 65520, i32 0
  call void @send_sideband(i32 noundef 1, i32 noundef 2, ptr noundef nonnull %4, i64 noundef %34, i32 noundef %35) #21
  %36 = getelementptr inbounds nuw i8, ptr %31, i64 1
  %.neg = xor i64 %34, -1
  %37 = add i64 %25, %.neg
  %.b25 = load i1, ptr @use_sideband, align 4
  %38 = select i1 %.b25, i32 65520, i32 0
  call void @send_sideband(i32 noundef 1, i32 noundef 2, ptr noundef nonnull %36, i64 noundef %37, i32 noundef %38) #21
  br label %select.unfold.outer.backedge

.thread29:                                        ; preds = %30, %27
  %.b = load i1, ptr @use_sideband, align 4
  %39 = select i1 %.b, i32 65520, i32 0
  call void @send_sideband(i32 noundef 1, i32 noundef 2, ptr noundef nonnull %4, i64 noundef %25, i32 noundef %39) #21
  br label %select.unfold

40:                                               ; preds = %21
  call void @write_or_die(i32 noundef 1, ptr noundef nonnull @copy_to_sideband.buf, i64 noundef 5) #21
  call void @llvm.lifetime.end.p0(i64 8, ptr nonnull %5) #21
  br label %select.unfold.outer.backedge

select.unfold.outer.backedge:                     ; preds = %40, %32, %18
  br label %select.unfold.outer

.thread32:                                        ; preds = %18, %24
  %41 = call i32 @close(i32 noundef %0) #21
  call void @llvm.lifetime.end.p0(i64 128, ptr nonnull %4) #21
  ret i32 0
}